target datalayout = "e-m:e-p270:32:32-p271:32:32-p272:64:64-i64:64-i128:128-f80:128-n8:16:32:64-S128"
target triple = "x86_64-pc-linux-gnu"

@hf_rpc_auth_gid = internal global i32 0, align 4
@ett_rpc_gids = internal global i32 0, align 4
@.str.263 = private unnamed_addr constant [20 x i8] c"Auxiliary GIDs (%u)\00", align 1
@.str.264 = private unnamed_addr constant [3 x i8] c" [\00", align 1
@.str.265 = private unnamed_addr constant [3 x i8] c", \00", align 1
@.str.266 = private unnamed_addr constant [3 x i8] c"%u\00", align 1
@.str.267 = private unnamed_addr constant [4 x i8] c"...\00", align 1
@.str.268 = private unnamed_addr constant [2 x i8] c"]\00", align 1

; Function Attrs: null_pointer_is_valid sspstrong uwtable
define internal i32 @dissect_rpc_authunix_groups(ptr noundef %0, ptr noundef %1, i32 noundef %2) #0 {
  %4 = alloca ptr, align 8
  %5 = alloca ptr, align 8
  %6 = alloca i32, align 4
  %7 = alloca i32, align 4
  %8 = alloca i32, align 4
  %9 = alloca i32, align 4
  %10 = alloca ptr, align 8
  %11 = alloca ptr, align 8
  store ptr %0, ptr %4, align 8
  store ptr %1, ptr %5, align 8
  store i32 %2, ptr %6, align 4
  call void @llvm.lifetime.start.p0(i64 4, ptr %7) #18
  call void @llvm.lifetime.start.p0(i64 4, ptr %8) #18
  call void @llvm.lifetime.start.p0(i64 4, ptr %9) #18
  call void @llvm.lifetime.start.p0(i64 8, ptr %10) #18
  store ptr null, ptr %10, align 8
  call void @llvm.lifetime.start.p0(i64 8, ptr %11) #18
  store ptr null, ptr %11, align 8
  %12 = load ptr, ptr %4, align 8
  %13 = load i32, ptr %6, align 4
  %14 = call i32 @tvb_get_ntohl(ptr noundef %12, i32 noundef %13)
  store i32 %14, ptr %7, align 4
  %15 = load ptr, ptr %5, align 8
  %16 = load ptr, ptr %4, align 8
  %17 = load i32, ptr %6, align 4
  %18 = load i32, ptr %7, align 4
  %19 = mul i32 %18, 4
  %20 = add i32 4, %19
  %21 = load i32, ptr @ett_rpc_gids, align 4
  %22 = load i32, ptr %7, align 4
  %23 = call ptr (ptr, ptr, i32, i32, i32, ptr, ptr, ...) @proto_tree_add_subtree_format(ptr noundef %15, ptr noundef %16, i32 noundef %17, i32 noundef %20, i32 noundef %21, ptr noundef %10, ptr noundef @.str.263, i32 noundef %22)
  store ptr %23, ptr %11, align 8
  %24 = load i32, ptr %6, align 4
  %25 = add i32 %24, 4
  store i32 %25, ptr %6, align 4
  %26 = load ptr, ptr %5, align 8
  %27 = icmp ne ptr %26, null
  br i1 %27, label %28, label %33

28:                                               ; preds = %3
  %29 = load i32, ptr %7, align 4
  %30 = icmp ugt i32 %29, 0
  br i1 %30, label %31, label %33

31:                                               ; preds = %28
  %32 = load ptr, ptr %10, align 8
  call void (ptr, ptr, ...) @proto_item_append_text(ptr noundef %32, ptr noundef @.str.264)
  br label %33

33:                                               ; preds = %31, %28, %3
  store i32 0, ptr %8, align 4
  br label %34

34:                                               ; preds = %77, %33
  %35 = load i32, ptr %8, align 4
  %36 = load i32, ptr %7, align 4
  %37 = icmp ult i32 %35, %36
  br i1 %37, label %38, label %80

38:                                               ; preds = %34
  %39 = load ptr, ptr %4, align 8
  %40 = load i32, ptr %6, align 4
  %41 = call i32 @tvb_get_ntohl(ptr noundef %39, i32 noundef %40)
  store i32 %41, ptr %9, align 4
  %42 = load ptr, ptr %11, align 8
  %43 = icmp ne ptr %42, null
  br i1 %43, label %44, label %51

44:                                               ; preds = %38
  %45 = load ptr, ptr %11, align 8
  %46 = load i32, ptr @hf_rpc_auth_gid, align 4
  %47 = load ptr, ptr %4, align 8
  %48 = load i32, ptr %6, align 4
  %49 = load i32, ptr %9, align 4
  %50 = call ptr @proto_tree_add_uint(ptr noundef %45, i32 noundef %46, ptr noundef %47, i32 noundef %48, i32 noundef 4, i32 noundef %49)
  br label %51

51:                                               ; preds = %44, %38
  %52 = load ptr, ptr %5, align 8
  %53 = icmp ne ptr %52, null
  br i1 %53, label %54, label %65

54:                                               ; preds = %51
  %55 = load i32, ptr %8, align 4
  %56 = icmp ult i32 %55, 16
  br i1 %56, label %57, label %65

57:                                               ; preds = %54
  %58 = load i32, ptr %8, align 4
  %59 = icmp ugt i32 %58, 0
  br i1 %59, label %60, label %62

60:                                               ; preds = %57
  %61 = load ptr, ptr %10, align 8
  call void (ptr, ptr, ...) @proto_item_append_text(ptr noundef %61, ptr noundef @.str.265)
  br label %62

62:                                               ; preds = %60, %57
  %63 = load ptr, ptr %10, align 8
  %64 = load i32, ptr %9, align 4
  call void (ptr, ptr, ...) @proto_item_append_text(ptr noundef %63, ptr noundef @.str.266, i32 noundef %64)
  br label %74

65:                                               ; preds = %54, %51
  %66 = load ptr, ptr %5, align 8
  %67 = icmp ne ptr %66, null
  br i1 %67, label %68, label %73

68:                                               ; preds = %65
  %69 = load i32, ptr %8, align 4
  %70 = icmp eq i32 %69, 16
  br i1 %70, label %71, label %73

71:                                               ; preds = %68
  %72 = load ptr, ptr %10, align 8
  call void (ptr, ptr, ...) @proto_item_append_text(ptr noundef %72, ptr noundef @.str.267)
  br label %73

73:                                               ; preds = %71, %68, %65
  br label %74

74:                                               ; preds = %73, %62
  %75 = load i32, ptr %6, align 4
  %76 = add i32 %75, 4
  store i32 %76, ptr %6, align 4
  br label %77

77:                                               ; preds = %74
  %78 = load i32, ptr %8, align 4
  %79 = add i32 %78, 1
  store i32 %79, ptr %8, align 4
  br label %34, !llvm.loop !15

80:                                               ; preds = %34
  %81 = load ptr, ptr %5, align 8
  %82 = icmp ne ptr %81, null
  br i1 %82, label %83, label %88

83:                                               ; preds = %80
  %84 = load i32, ptr %7, align 4
  %85 = icmp ugt i32 %84, 0
  br i1 %85, label %86, label %88

86:                                               ; preds = %83
  %87 = load ptr, ptr %10, align 8
  call void (ptr, ptr, ...) @proto_item_append_text(ptr noundef %87, ptr noundef @.str.268)
  br label %88

88:                                               ; preds = %86, %83, %80
  %89 = load i32, ptr %6, align 4
  call void @llvm.lifetime.end.p0(i64 8, ptr %11) #18
  call void @llvm.lifetime.end.p0(i64 8, ptr %10) #18
  call void @llvm.lifetime.end.p0(i64 4, ptr %9) #18
  call void @llvm.lifetime.end.p0(i64 4, ptr %8) #18
  call void @llvm.lifetime.end.p0(i64 4, ptr %7) #18
  ret i32 %89
}