; Function Attrs: null_pointer_is_valid sspstrong uwtable
define internal fastcc noundef i32 @dissect_rpc_authunix_groups(ptr noundef %0, ptr noundef %1, i32 noundef %2) unnamed_addr #0 {
  %4 = alloca ptr, align 8
  call void @llvm.lifetime.start.p0(i64 8, ptr nonnull %4) #17
  store ptr null, ptr %4, align 8
  %5 = tail call i32 @tvb_get_ntohl(ptr noundef %0, i32 noundef %2)
  %6 = shl i32 %5, 2
  %7 = add i32 %6, 4
  %8 = load i32, ptr @ett_rpc_gids, align 4
  %9 = call ptr (ptr, ptr, i32, i32, i32, ptr, ptr, ...) @proto_tree_add_subtree_format(ptr noundef %1, ptr noundef %0, i32 noundef %2, i32 noundef %7, i32 noundef %8, ptr noundef nonnull %4, ptr noundef nonnull @.str.263, i32 noundef %5)
  %.fr = freeze ptr %9
  %10 = icmp ne ptr %1, null
  %11 = icmp ne i32 %5, 0
  %or.cond = and i1 %10, %11
  br i1 %or.cond, label %.lr.ph.thread, label %13

.lr.ph.thread:                                    ; preds = %3
  %12 = load ptr, ptr %4, align 8
  call void (ptr, ptr, ...) @proto_item_append_text(ptr noundef %12, ptr noundef nonnull @.str.264)
  %.03957 = add i32 %2, 4
  %.not61 = icmp eq ptr %.fr, null
  br i1 %.not61, label %.lr.ph.split.split.us.preheader, label %.lr.ph.split.split.preheader

13:                                               ; preds = %3
  %.039 = add i32 %2, 4
  %.not49 = icmp eq i32 %5, 0
  br i1 %.not49, label %._crit_edge.thread, label %.lr.ph

.lr.ph:                                           ; preds = %13
  %.not = icmp eq ptr %.fr, null
  br i1 %10, label %.lr.ph.split, label %.lr.ph.split.us

.lr.ph.split.us:                                  ; preds = %.lr.ph
  br i1 %.not, label %.lr.ph.split.us.split.us, label %.lr.ph.split.us.split

.lr.ph.split.us.split.us:                         ; preds = %.lr.ph.split.us, %.lr.ph.split.us.split.us
  %.041.us.us = phi i32 [ %.0.us.us, %.lr.ph.split.us.split.us ], [ %.039, %.lr.ph.split.us ]
  %.03640.us.us = phi i32 [ %15, %.lr.ph.split.us.split.us ], [ 0, %.lr.ph.split.us ]
  %14 = call i32 @tvb_get_ntohl(ptr noundef %0, i32 noundef %.041.us.us)
  %15 = add nuw i32 %.03640.us.us, 1
  %.0.us.us = add i32 %.041.us.us, 4
  %exitcond54.not = icmp eq i32 %15, %5
  br i1 %exitcond54.not, label %._crit_edge, label %.lr.ph.split.us.split.us, !llvm.loop !15

.lr.ph.split.us.split:                            ; preds = %.lr.ph.split.us, %.lr.ph.split.us.split
  %.041.us = phi i32 [ %.0.us, %.lr.ph.split.us.split ], [ %.039, %.lr.ph.split.us ]
  %.03640.us = phi i32 [ %19, %.lr.ph.split.us.split ], [ 0, %.lr.ph.split.us ]
  %16 = call i32 @tvb_get_ntohl(ptr noundef %0, i32 noundef %.041.us)
  %17 = load i32, ptr @hf_rpc_auth_gid, align 4
  %18 = call ptr @proto_tree_add_uint(ptr noundef nonnull %.fr, i32 noundef %17, ptr noundef %0, i32 noundef %.041.us, i32 noundef 4, i32 noundef %16)
  %19 = add nuw i32 %.03640.us, 1
  %.0.us = add i32 %.041.us, 4
  %exitcond.not = icmp eq i32 %19, %5
  br i1 %exitcond.not, label %._crit_edge, label %.lr.ph.split.us.split, !llvm.loop !15

.lr.ph.split:                                     ; preds = %.lr.ph
  br i1 %.not, label %.lr.ph.split.split.us.preheader, label %.lr.ph.split.split.preheader

.lr.ph.split.split.preheader:                     ; preds = %.lr.ph.thread, %.lr.ph.split
  %.041.ph = phi i32 [ %.039, %.lr.ph.split ], [ %.03957, %.lr.ph.thread ]
  br label %.lr.ph.split.split

.lr.ph.split.split.us.preheader:                  ; preds = %.lr.ph.thread, %.lr.ph.split
  %.041.us42.ph = phi i32 [ %.039, %.lr.ph.split ], [ %.03957, %.lr.ph.thread ]
  br label %.lr.ph.split.split.us

.lr.ph.split.split.us:                            ; preds = %.lr.ph.split.split.us.preheader, %31
  %.041.us42 = phi i32 [ %.0.us44, %31 ], [ %.041.us42.ph, %.lr.ph.split.split.us.preheader ]
  %.03640.us43 = phi i32 [ %32, %31 ], [ 0, %.lr.ph.split.split.us.preheader ]
  %20 = call i32 @tvb_get_ntohl(ptr noundef %0, i32 noundef %.041.us42)
  %21 = icmp ult i32 %.03640.us43, 16
  br i1 %21, label %26, label %22

22:                                               ; preds = %.lr.ph.split.split.us
  %23 = icmp eq i32 %.03640.us43, 16
  br i1 %23, label %24, label %31

24:                                               ; preds = %22
  %25 = load ptr, ptr %4, align 8
  call void (ptr, ptr, ...) @proto_item_append_text(ptr noundef %25, ptr noundef nonnull @.str.267)
  br label %31

26:                                               ; preds = %.lr.ph.split.split.us
  %.not38.us = icmp eq i32 %.03640.us43, 0
  br i1 %.not38.us, label %29, label %27

27:                                               ; preds = %26
  %28 = load ptr, ptr %4, align 8
  call void (ptr, ptr, ...) @proto_item_append_text(ptr noundef %28, ptr noundef nonnull @.str.265)
  br label %29

29:                                               ; preds = %27, %26
  %30 = load ptr, ptr %4, align 8
  call void (ptr, ptr, ...) @proto_item_append_text(ptr noundef %30, ptr noundef nonnull @.str.266, i32 noundef %20)
  br label %31

31:                                               ; preds = %29, %24, %22
  %32 = add nuw i32 %.03640.us43, 1
  %.0.us44 = add i32 %.041.us42, 4
  %exitcond56.not = icmp eq i32 %32, %5
  br i1 %exitcond56.not, label %._crit_edge, label %.lr.ph.split.split.us, !llvm.loop !15

.lr.ph.split.split:                               ; preds = %.lr.ph.split.split.preheader, %46
  %.041 = phi i32 [ %.0, %46 ], [ %.041.ph, %.lr.ph.split.split.preheader ]
  %.03640 = phi i32 [ %47, %46 ], [ 0, %.lr.ph.split.split.preheader ]
  %33 = call i32 @tvb_get_ntohl(ptr noundef %0, i32 noundef %.041)
  %34 = load i32, ptr @hf_rpc_auth_gid, align 4
  %35 = call ptr @proto_tree_add_uint(ptr noundef nonnull %.fr, i32 noundef %34, ptr noundef %0, i32 noundef %.041, i32 noundef 4, i32 noundef %33)
  %36 = icmp ult i32 %.03640, 16
  br i1 %36, label %37, label %42

37:                                               ; preds = %.lr.ph.split.split
  %.not38 = icmp eq i32 %.03640, 0
  br i1 %.not38, label %40, label %38

38:                                               ; preds = %37
  %39 = load ptr, ptr %4, align 8
  call void (ptr, ptr, ...) @proto_item_append_text(ptr noundef %39, ptr noundef nonnull @.str.265)
  br label %40

40:                                               ; preds = %38, %37
  %41 = load ptr, ptr %4, align 8
  call void (ptr, ptr, ...) @proto_item_append_text(ptr noundef %41, ptr noundef nonnull @.str.266, i32 noundef %33)
  br label %46

42:                                               ; preds = %.lr.ph.split.split
  %43 = icmp eq i32 %.03640, 16
  br i1 %43, label %44, label %46

44:                                               ; preds = %42
  %45 = load ptr, ptr %4, align 8
  call void (ptr, ptr, ...) @proto_item_append_text(ptr noundef %45, ptr noundef nonnull @.str.267)
  br label %46

46:                                               ; preds = %42, %44, %40
  %47 = add nuw i32 %.03640, 1
  %.0 = add i32 %.041, 4
  %exitcond55.not = icmp eq i32 %47, %5
  br i1 %exitcond55.not, label %._crit_edge, label %.lr.ph.split.split, !llvm.loop !15

._crit_edge:                                      ; preds = %.lr.ph.split.us.split, %.lr.ph.split.us.split.us, %46, %31
  %.0.lcssa = phi i32 [ %.0.us44, %31 ], [ %.0, %46 ], [ %.0.us.us, %.lr.ph.split.us.split.us ], [ %.0.us, %.lr.ph.split.us.split ]
  br i1 %or.cond, label %48, label %._crit_edge.thread

48:                                               ; preds = %._crit_edge
  %49 = load ptr, ptr %4, align 8
  call void (ptr, ptr, ...) @proto_item_append_text(ptr noundef %49, ptr noundef nonnull @.str.268)
  br label %._crit_edge.thread

._crit_edge.thread:                               ; preds = %13, %48, %._crit_edge
  %.0.lcssa67 = phi i32 [ %.0.lcssa, %48 ], [ %.0.lcssa, %._crit_edge ], [ %.039, %13 ]
  call void @llvm.lifetime.end.p0(i64 8, ptr nonnull %4) #17
  ret i32 %.0.lcssa67
}